target datalayout = "e-m:e-p270:32:32-p271:32:32-p272:64:64-i64:64-i128:128-f80:128-n8:16:32:64-S128"
target triple = "x86_64-unknown-linux-gnu"

%"class.Assimp::MD2Importer" = type <{ %"class.Assimp::BaseImporter", i32, [4 x i8], ptr, ptr, i32, [4 x i8] }>
%"class.Assimp::BaseImporter" = type { ptr, double, double, %"class.std::__cxx11::basic_string", %"class.std::__exception_ptr::exception_ptr", ptr }
%"class.std::__cxx11::basic_string" = type { %"struct.std::__cxx11::basic_string<char>::_Alloc_hider", i64, %union.anon }
%"struct.std::__cxx11::basic_string<char>::_Alloc_hider" = type { ptr }
%union.anon = type { i64, [8 x i8] }
%"class.std::__exception_ptr::exception_ptr" = type { ptr }

@.str.1 = private unnamed_addr constant [20 x i8] c"IMPORT_MD2_KEYFRAME\00", align 1
@.str.2 = private unnamed_addr constant [23 x i8] c"IMPORT_GLOBAL_KEYFRAME\00", align 1

; Function Attrs: mustprogress uwtable
define hidden void @_ZN6Assimp11MD2Importer15SetupPropertiesEPKNS_8ImporterE(ptr noundef nonnull align 8 dereferenceable(100) %this, ptr noundef %pImp) unnamed_addr #2 align 2 {
entry:
  %this.addr = alloca ptr, align 8
  %pImp.addr = alloca ptr, align 8
  store ptr %this, ptr %this.addr, align 8
  store ptr %pImp, ptr %pImp.addr, align 8
  %this1 = load ptr, ptr %this.addr, align 8
  %0 = load ptr, ptr %pImp.addr, align 8
  %call = call noundef i32 @_ZNK6Assimp8Importer18GetPropertyIntegerEPKci(ptr noundef nonnull align 8 dereferenceable(8) %0, ptr noundef @.str.1, i32 noundef -1)
  %configFrameID = getelementptr inbounds %"class.Assimp::MD2Importer", ptr %this1, i32 0, i32 1
  store i32 %call, ptr %configFrameID, align 8
  %configFrameID2 = getelementptr inbounds %"class.Assimp::MD2Importer", ptr %this1, i32 0, i32 1
  %1 = load i32, ptr %configFrameID2, align 8
  %cmp = icmp eq i32 -1, %1
  br i1 %cmp, label %if.then, label %if.end

if.then:                                          ; preds = %entry
  %2 = load ptr, ptr %pImp.addr, align 8
  %call3 = call noundef i32 @_ZNK6Assimp8Importer18GetPropertyIntegerEPKci(ptr noundef nonnull align 8 dereferenceable(8) %2, ptr noundef @.str.2, i32 noundef 0)
  %configFrameID4 = getelementptr inbounds %"class.Assimp::MD2Importer", ptr %this1, i32 0, i32 1
  store i32 %call3, ptr %configFrameID4, align 8
  br label %if.end

if.end:                                           ; preds = %if.then, %entry
  ret void
}