; Function Attrs: mustprogress uwtable
define hidden void @_ZN6Assimp11MD2Importer15SetupPropertiesEPKNS_8ImporterE(ptr nocapture noundef nonnull writeonly align 8 dereferenceable(100) %this, ptr noundef nonnull %pImp) unnamed_addr #0 align 2 {
entry:
  %call = tail call noundef i32 @_ZNK6Assimp8Importer18GetPropertyIntegerEPKci(ptr noundef nonnull align 8 dereferenceable(8) %pImp, ptr noundef nonnull @.str.1, i32 noundef -1)
  %configFrameID = getelementptr inbounds i8, ptr %this, i64 72
  store i32 %call, ptr %configFrameID, align 8
  %cmp = icmp eq i32 %call, -1
  br i1 %cmp, label %if.then, label %if.end

if.then:                                          ; preds = %entry
  %call3 = tail call noundef i32 @_ZNK6Assimp8Importer18GetPropertyIntegerEPKci(ptr noundef nonnull align 8 dereferenceable(8) %pImp, ptr noundef nonnull @.str.2, i32 noundef 0)
  store i32 %call3, ptr %configFrameID, align 8
  br label %if.end

if.end:                                           ; preds = %if.then, %entry
  ret void
}